target datalayout = "e-m:e-p270:32:32-p271:32:32-p272:64:64-i64:64-i128:128-f80:128-n8:16:32:64-S128"
target triple = "x86_64-pc-linux-gnu"

%struct.gstack_s = type { ptr, ptr, %struct.list_s, %struct.list_s, %struct.list_s, ptr }
%struct.list_s = type { ptr, ptr }
%struct.item_s = type { i32, %union.s, ptr, ptr }
%union.s = type { ptr }

@G = internal global ptr null, align 8
@S = internal global ptr null, align 8
@Key = internal constant [4 x i8] c"key\00", align 1
@.str.12 = private unnamed_addr constant [1 x i8] zeroinitializer, align 1

; Function Attrs: inlinehint nounwind uwtable
define internal zeroext i1 @streq(ptr noundef %0, ptr noundef %1) #6 {
  %3 = alloca ptr, align 8
  %4 = alloca ptr, align 8
  store ptr %0, ptr %3, align 8, !tbaa !9
  store ptr %1, ptr %4, align 8, !tbaa !9
  %5 = load ptr, ptr %3, align 8, !tbaa !9
  %6 = load ptr, ptr %4, align 8, !tbaa !9
  %7 = call i32 @strcmp(ptr noundef %5, ptr noundef %6) #17
  %8 = icmp eq i32 %7, 0
  ret i1 %8
}

; Function Attrs: nounwind uwtable
define internal void @deletelist(ptr noundef %0) #0 {
  %2 = alloca ptr, align 8
  store ptr %0, ptr %2, align 8, !tbaa !65
  %3 = load ptr, ptr %2, align 8, !tbaa !65
  %4 = getelementptr inbounds nuw %struct.list_s, ptr %3, i32 0, i32 0
  %5 = load ptr, ptr %4, align 8, !tbaa !68
  call void @delete_items(ptr noundef %5)
  %6 = load ptr, ptr %2, align 8, !tbaa !65
  %7 = getelementptr inbounds nuw %struct.list_s, ptr %6, i32 0, i32 1
  store ptr null, ptr %7, align 8, !tbaa !67
  %8 = load ptr, ptr %2, align 8, !tbaa !65
  %9 = getelementptr inbounds nuw %struct.list_s, ptr %8, i32 0, i32 0
  store ptr null, ptr %9, align 8, !tbaa !68
  ret void
}

; Function Attrs: nounwind uwtable
define internal void @applyattrs(ptr noundef %0) #0 {
  %2 = alloca ptr, align 8
  %3 = alloca ptr, align 8
  store ptr %0, ptr %2, align 8, !tbaa !64
  call void @llvm.lifetime.start.p0(i64 8, ptr %3) #14
  %4 = load ptr, ptr @S, align 8, !tbaa !22
  %5 = getelementptr inbounds nuw %struct.gstack_s, ptr %4, i32 0, i32 4
  %6 = getelementptr inbounds nuw %struct.list_s, ptr %5, i32 0, i32 0
  %7 = load ptr, ptr %6, align 8, !tbaa !31
  store ptr %7, ptr %3, align 8, !tbaa !35
  br label %8

8:                                                ; preds = %49, %1
  %9 = load ptr, ptr %3, align 8, !tbaa !35
  %10 = icmp ne ptr %9, null
  br i1 %10, label %11, label %53

11:                                               ; preds = %8
  %12 = load ptr, ptr %3, align 8, !tbaa !35
  %13 = getelementptr inbounds nuw %struct.item_s, ptr %12, i32 0, i32 0
  %14 = load i32, ptr %13, align 8, !tbaa !36
  %15 = icmp eq i32 %14, 266
  br i1 %15, label %16, label %47

16:                                               ; preds = %11
  %17 = load ptr, ptr %3, align 8, !tbaa !35
  %18 = getelementptr inbounds nuw %struct.item_s, ptr %17, i32 0, i32 1
  %19 = load ptr, ptr %18, align 8, !tbaa !14
  %20 = icmp ne ptr %19, null
  br i1 %20, label %21, label %46

21:                                               ; preds = %16
  %22 = load ptr, ptr %3, align 8, !tbaa !35
  %23 = getelementptr inbounds nuw %struct.item_s, ptr %22, i32 0, i32 2
  %24 = load ptr, ptr %23, align 8, !tbaa !38
  %25 = call i32 @aghtmlstr(ptr noundef %24)
  %26 = icmp ne i32 %25, 0
  br i1 %26, label %27, label %36

27:                                               ; preds = %21
  %28 = load ptr, ptr %2, align 8, !tbaa !64
  %29 = load ptr, ptr %3, align 8, !tbaa !35
  %30 = getelementptr inbounds nuw %struct.item_s, ptr %29, i32 0, i32 1
  %31 = load ptr, ptr %30, align 8, !tbaa !14
  %32 = load ptr, ptr %3, align 8, !tbaa !35
  %33 = getelementptr inbounds nuw %struct.item_s, ptr %32, i32 0, i32 2
  %34 = load ptr, ptr %33, align 8, !tbaa !38
  %35 = call i32 @agxset_html(ptr noundef %28, ptr noundef %31, ptr noundef %34)
  br label %45

36:                                               ; preds = %21
  %37 = load ptr, ptr %2, align 8, !tbaa !64
  %38 = load ptr, ptr %3, align 8, !tbaa !35
  %39 = getelementptr inbounds nuw %struct.item_s, ptr %38, i32 0, i32 1
  %40 = load ptr, ptr %39, align 8, !tbaa !14
  %41 = load ptr, ptr %3, align 8, !tbaa !35
  %42 = getelementptr inbounds nuw %struct.item_s, ptr %41, i32 0, i32 2
  %43 = load ptr, ptr %42, align 8, !tbaa !38
  %44 = call i32 @agxset(ptr noundef %37, ptr noundef %40, ptr noundef %43)
  br label %45

45:                                               ; preds = %36, %27
  br label %46

46:                                               ; preds = %45, %16
  br label %48

47:                                               ; preds = %11
  br label %48

48:                                               ; preds = %47, %46
  br label %49

49:                                               ; preds = %48
  %50 = load ptr, ptr %3, align 8, !tbaa !35
  %51 = getelementptr inbounds nuw %struct.item_s, ptr %50, i32 0, i32 3
  %52 = load ptr, ptr %51, align 8, !tbaa !39
  store ptr %52, ptr %3, align 8, !tbaa !35
  br label %8, !llvm.loop !73

53:                                               ; preds = %8
  call void @llvm.lifetime.end.p0(i64 8, ptr %3) #14
  ret void
}

; Function Attrs: nounwind uwtable
define internal void @bindattrs(i32 noundef %0) #0 {
  %2 = alloca i32, align 4
  %3 = alloca ptr, align 8
  %4 = alloca ptr, align 8
  store i32 %0, ptr %2, align 4, !tbaa !3
  call void @llvm.lifetime.start.p0(i64 8, ptr %3) #14
  call void @llvm.lifetime.start.p0(i64 8, ptr %4) #14
  %5 = load ptr, ptr @S, align 8, !tbaa !22
  %6 = getelementptr inbounds nuw %struct.gstack_s, ptr %5, i32 0, i32 4
  %7 = getelementptr inbounds nuw %struct.list_s, ptr %6, i32 0, i32 0
  %8 = load ptr, ptr %7, align 8, !tbaa !31
  store ptr %8, ptr %3, align 8, !tbaa !35
  br label %9

9:                                                ; preds = %47, %1
  %10 = load ptr, ptr %3, align 8, !tbaa !35
  %11 = icmp ne ptr %10, null
  br i1 %11, label %12, label %51

12:                                               ; preds = %9
  %13 = load ptr, ptr %3, align 8, !tbaa !35
  %14 = getelementptr inbounds nuw %struct.item_s, ptr %13, i32 0, i32 1
  %15 = load ptr, ptr %14, align 8, !tbaa !14
  store ptr %15, ptr %4, align 8, !tbaa !9
  %16 = load i32, ptr %2, align 4, !tbaa !3
  %17 = icmp eq i32 %16, 2
  br i1 %17, label %18, label %22

18:                                               ; preds = %12
  %19 = load ptr, ptr %4, align 8, !tbaa !9
  %20 = call zeroext i1 @streq(ptr noundef %19, ptr noundef @Key)
  br i1 %20, label %21, label %22

21:                                               ; preds = %18
  br label %47

22:                                               ; preds = %18, %12
  %23 = load ptr, ptr @S, align 8, !tbaa !22
  %24 = getelementptr inbounds nuw %struct.gstack_s, ptr %23, i32 0, i32 0
  %25 = load ptr, ptr %24, align 8, !tbaa !44
  %26 = load i32, ptr %2, align 4, !tbaa !3
  %27 = load ptr, ptr %4, align 8, !tbaa !9
  %28 = call ptr @agattr(ptr noundef %25, i32 noundef %26, ptr noundef %27, ptr noundef null)
  %29 = load ptr, ptr %3, align 8, !tbaa !35
  %30 = getelementptr inbounds nuw %struct.item_s, ptr %29, i32 0, i32 1
  store ptr %28, ptr %30, align 8, !tbaa !14
  %31 = icmp eq ptr %28, null
  br i1 %31, label %32, label %41

32:                                               ; preds = %22
  %33 = load ptr, ptr @S, align 8, !tbaa !22
  %34 = getelementptr inbounds nuw %struct.gstack_s, ptr %33, i32 0, i32 0
  %35 = load ptr, ptr %34, align 8, !tbaa !44
  %36 = load i32, ptr %2, align 4, !tbaa !3
  %37 = load ptr, ptr %4, align 8, !tbaa !9
  %38 = call ptr @agattr(ptr noundef %35, i32 noundef %36, ptr noundef %37, ptr noundef @.str.12)
  %39 = load ptr, ptr %3, align 8, !tbaa !35
  %40 = getelementptr inbounds nuw %struct.item_s, ptr %39, i32 0, i32 1
  store ptr %38, ptr %40, align 8, !tbaa !14
  br label %41

41:                                               ; preds = %32, %22
  %42 = load ptr, ptr %3, align 8, !tbaa !35
  %43 = getelementptr inbounds nuw %struct.item_s, ptr %42, i32 0, i32 0
  store i32 266, ptr %43, align 8, !tbaa !36
  %44 = load ptr, ptr @G, align 8, !tbaa !18
  %45 = load ptr, ptr %4, align 8, !tbaa !9
  %46 = call i32 @agstrfree(ptr noundef %44, ptr noundef %45, i1 noundef zeroext false)
  br label %47

47:                                               ; preds = %41, %21
  %48 = load ptr, ptr %3, align 8, !tbaa !35
  %49 = getelementptr inbounds nuw %struct.item_s, ptr %48, i32 0, i32 3
  %50 = load ptr, ptr %49, align 8, !tbaa !39
  store ptr %50, ptr %3, align 8, !tbaa !35
  br label %9, !llvm.loop !69

51:                                               ; preds = %9
  call void @llvm.lifetime.end.p0(i64 8, ptr %4) #14
  call void @llvm.lifetime.end.p0(i64 8, ptr %3) #14
  ret void
}

; Function Attrs: nounwind uwtable
define internal void @endnode() #0 {
  %1 = alloca ptr, align 8
  call void @llvm.lifetime.start.p0(i64 8, ptr %1) #14
  call void @bindattrs(i32 noundef 1)
  %2 = load ptr, ptr @S, align 8, !tbaa !22
  %3 = getelementptr inbounds nuw %struct.gstack_s, ptr %2, i32 0, i32 2
  %4 = getelementptr inbounds nuw %struct.list_s, ptr %3, i32 0, i32 0
  %5 = load ptr, ptr %4, align 8, !tbaa !49
  store ptr %5, ptr %1, align 8, !tbaa !35
  br label %6

6:                                                ; preds = %13, %0
  %7 = load ptr, ptr %1, align 8, !tbaa !35
  %8 = icmp ne ptr %7, null
  br i1 %8, label %9, label %17

9:                                                ; preds = %6
  %10 = load ptr, ptr %1, align 8, !tbaa !35
  %11 = getelementptr inbounds nuw %struct.item_s, ptr %10, i32 0, i32 1
  %12 = load ptr, ptr %11, align 8, !tbaa !14
  call void @applyattrs(ptr noundef %12)
  br label %13

13:                                               ; preds = %9
  %14 = load ptr, ptr %1, align 8, !tbaa !35
  %15 = getelementptr inbounds nuw %struct.item_s, ptr %14, i32 0, i32 3
  %16 = load ptr, ptr %15, align 8, !tbaa !39
  store ptr %16, ptr %1, align 8, !tbaa !35
  br label %6, !llvm.loop !50

17:                                               ; preds = %6
  %18 = load ptr, ptr @S, align 8, !tbaa !22
  %19 = getelementptr inbounds nuw %struct.gstack_s, ptr %18, i32 0, i32 2
  call void @deletelist(ptr noundef %19)
  %20 = load ptr, ptr @S, align 8, !tbaa !22
  %21 = getelementptr inbounds nuw %struct.gstack_s, ptr %20, i32 0, i32 4
  call void @deletelist(ptr noundef %21)
  %22 = load ptr, ptr @S, align 8, !tbaa !22
  %23 = getelementptr inbounds nuw %struct.gstack_s, ptr %22, i32 0, i32 3
  call void @deletelist(ptr noundef %23)
  %24 = load ptr, ptr @S, align 8, !tbaa !22
  %25 = getelementptr inbounds nuw %struct.gstack_s, ptr %24, i32 0, i32 1
  store ptr null, ptr %25, align 8, !tbaa !48
  call void @llvm.lifetime.end.p0(i64 8, ptr %1) #14
  ret void
}