; Function Attrs: nounwind uwtable
define internal fastcc void @endnode() unnamed_addr #0 {
  %1 = load ptr, ptr @S, align 8, !tbaa !8
  %2 = getelementptr inbounds nuw i8, ptr %1, i64 48
  %.012.i = load ptr, ptr %2, align 8, !tbaa !25
  %.not13.i = icmp eq ptr %.012.i, null
  br i1 %.not13.i, label %bindattrs.exit, label %.lr.ph.split.i

.lr.ph.split.i:                                   ; preds = %0, %13
  %.014.i = phi ptr [ %.0.i, %13 ], [ %.012.i, %0 ]
  %3 = getelementptr inbounds nuw i8, ptr %.014.i, i64 8
  %4 = load ptr, ptr %3, align 8, !tbaa !7
  %5 = load ptr, ptr @S, align 8, !tbaa !8
  %6 = load ptr, ptr %5, align 8, !tbaa !24
  %7 = tail call ptr @agattr(ptr noundef %6, i32 noundef 1, ptr noundef %4, ptr noundef null) #19
  store ptr %7, ptr %3, align 8, !tbaa !7
  %8 = icmp eq ptr %7, null
  br i1 %8, label %9, label %13

9:                                                ; preds = %.lr.ph.split.i
  %10 = load ptr, ptr @S, align 8, !tbaa !8
  %11 = load ptr, ptr %10, align 8, !tbaa !24
  %12 = tail call ptr @agattr(ptr noundef %11, i32 noundef 1, ptr noundef %4, ptr noundef nonnull @.str.12) #19
  store ptr %12, ptr %3, align 8, !tbaa !7
  br label %13

13:                                               ; preds = %9, %.lr.ph.split.i
  store i32 266, ptr %.014.i, align 8, !tbaa !26
  %14 = load ptr, ptr @G, align 8, !tbaa !19
  %15 = tail call i32 @agstrfree(ptr noundef %14, ptr noundef %4, i1 noundef zeroext false) #19
  %16 = getelementptr inbounds nuw i8, ptr %.014.i, i64 24
  %.0.i = load ptr, ptr %16, align 8, !tbaa !25
  %.not.i = icmp eq ptr %.0.i, null
  br i1 %.not.i, label %bindattrs.exit.loopexit, label %.lr.ph.split.i, !llvm.loop !40

bindattrs.exit.loopexit:                          ; preds = %13
  %.pre = load ptr, ptr @S, align 8, !tbaa !8
  br label %bindattrs.exit

bindattrs.exit:                                   ; preds = %bindattrs.exit.loopexit, %0
  %17 = phi ptr [ %.pre, %bindattrs.exit.loopexit ], [ %1, %0 ]
  %18 = getelementptr inbounds nuw i8, ptr %17, i64 16
  %.06 = load ptr, ptr %18, align 8, !tbaa !25
  %.not7 = icmp eq ptr %.06, null
  br i1 %.not7, label %._crit_edge, label %.lr.ph

.lr.ph:                                           ; preds = %bindattrs.exit
  %19 = getelementptr inbounds nuw i8, ptr %17, i64 48
  %20 = load ptr, ptr %19, align 8, !tbaa !25
  %21 = icmp eq ptr %20, null
  br i1 %21, label %._crit_edge, label %.lr.ph.split

.lr.ph.split:                                     ; preds = %.lr.ph, %applyattrs.exit
  %.08 = phi ptr [ %.0, %applyattrs.exit ], [ %.06, %.lr.ph ]
  %22 = getelementptr inbounds nuw i8, ptr %.08, i64 8
  %23 = load ptr, ptr %22, align 8, !tbaa !7
  %24 = load ptr, ptr @S, align 8, !tbaa !8
  %25 = getelementptr inbounds nuw i8, ptr %24, i64 48
  %.013.i = load ptr, ptr %25, align 8, !tbaa !25
  %.not14.i = icmp eq ptr %.013.i, null
  br i1 %.not14.i, label %applyattrs.exit, label %.lr.ph.i3

.lr.ph.i3:                                        ; preds = %.lr.ph.split, %41
  %.015.i = phi ptr [ %.0.i4, %41 ], [ %.013.i, %.lr.ph.split ]
  %26 = load i32, ptr %.015.i, align 8, !tbaa !26
  %27 = icmp eq i32 %26, 266
  br i1 %27, label %28, label %41

28:                                               ; preds = %.lr.ph.i3
  %29 = getelementptr inbounds nuw i8, ptr %.015.i, i64 8
  %30 = load ptr, ptr %29, align 8, !tbaa !7
  %.not11.i = icmp eq ptr %30, null
  br i1 %.not11.i, label %41, label %31

31:                                               ; preds = %28
  %32 = getelementptr inbounds nuw i8, ptr %.015.i, i64 16
  %33 = load ptr, ptr %32, align 8, !tbaa !29
  %34 = tail call i32 @aghtmlstr(ptr noundef %33) #19
  %.not12.i = icmp eq i32 %34, 0
  %35 = load ptr, ptr %29, align 8, !tbaa !7
  %36 = load ptr, ptr %32, align 8, !tbaa !29
  br i1 %.not12.i, label %39, label %37

37:                                               ; preds = %31
  %38 = tail call i32 @agxset_html(ptr noundef %23, ptr noundef %35, ptr noundef %36) #19
  br label %41

39:                                               ; preds = %31
  %40 = tail call i32 @agxset(ptr noundef %23, ptr noundef %35, ptr noundef %36) #19
  br label %41

41:                                               ; preds = %39, %37, %28, %.lr.ph.i3
  %42 = getelementptr inbounds nuw i8, ptr %.015.i, i64 24
  %.0.i4 = load ptr, ptr %42, align 8, !tbaa !25
  %.not.i5 = icmp eq ptr %.0.i4, null
  br i1 %.not.i5, label %applyattrs.exit, label %.lr.ph.i3, !llvm.loop !32

applyattrs.exit:                                  ; preds = %41, %.lr.ph.split
  %43 = getelementptr inbounds nuw i8, ptr %.08, i64 24
  %.0 = load ptr, ptr %43, align 8, !tbaa !25
  %.not = icmp eq ptr %.0, null
  br i1 %.not, label %._crit_edge.loopexit9, label %.lr.ph.split, !llvm.loop !41

._crit_edge.loopexit9:                            ; preds = %applyattrs.exit
  %.pre10 = load ptr, ptr @S, align 8, !tbaa !8
  %.phi.trans.insert = getelementptr inbounds nuw i8, ptr %.pre10, i64 16
  %.pre11 = load ptr, ptr %.phi.trans.insert, align 8, !tbaa !11
  br label %._crit_edge

._crit_edge:                                      ; preds = %.lr.ph, %._crit_edge.loopexit9, %bindattrs.exit
  %44 = phi ptr [ %.pre11, %._crit_edge.loopexit9 ], [ null, %bindattrs.exit ], [ %.06, %.lr.ph ]
  %45 = phi ptr [ %.pre10, %._crit_edge.loopexit9 ], [ %17, %bindattrs.exit ], [ %17, %.lr.ph ]
  %46 = getelementptr inbounds nuw i8, ptr %45, i64 16
  tail call fastcc void @delete_items(ptr noundef %44)
  tail call void @llvm.memset.p0.i64(ptr noundef nonnull align 8 dereferenceable(16) %46, i8 0, i64 16, i1 false)
  %47 = load ptr, ptr @S, align 8, !tbaa !8
  %48 = getelementptr inbounds nuw i8, ptr %47, i64 48
  %49 = load ptr, ptr %48, align 8, !tbaa !11
  tail call fastcc void @delete_items(ptr noundef %49)
  tail call void @llvm.memset.p0.i64(ptr noundef nonnull align 8 dereferenceable(16) %48, i8 0, i64 16, i1 false)
  %50 = load ptr, ptr @S, align 8, !tbaa !8
  %51 = getelementptr inbounds nuw i8, ptr %50, i64 32
  %52 = load ptr, ptr %51, align 8, !tbaa !11
  tail call fastcc void @delete_items(ptr noundef %52)
  tail call void @llvm.memset.p0.i64(ptr noundef nonnull align 8 dereferenceable(16) %51, i8 0, i64 16, i1 false)
  %53 = load ptr, ptr @S, align 8, !tbaa !8
  %54 = getelementptr inbounds nuw i8, ptr %53, i64 8
  store ptr null, ptr %54, align 8, !tbaa !38
  ret void
}